Certificate:
    Data:
        Version: 3 (0x2)
        Serial Number:
            a6:6b:98:13:b3:d3:ec:fa:78:cd:c7:e0:f9:da:57:50
        Signature Algorithm: ecdsa-with-SHA512
        Issuer: CN=Easy-RSA CA
        Validity
            Not Before: Oct 13 05:17:09 2021 GMT
            Not After : Sep 27 05:17:09 2024 GMT
        Subject: CN=client6
        Subject Public Key Info:
            Public Key Algorithm: id-ecPublicKey
                Public-Key: (384 bit)
                pub:
                    04:a0:a9:cc:08:8b:8f:d5:68:97:01:4f:6d:1e:17:
                    97:d7:de:ed:0b:27:59:63:66:33:07:3c:8f:e9:36:
                    fb:64:00:87:d3:4a:0a:fe:28:df:60:fc:7a:2d:5f:
                    c8:af:eb:4c:07:4d:87:f2:2f:fa:51:a6:64:a6:c5:
                    0b:fc:04:7a:64:45:4c:74:3c:76:81:0b:44:97:65:
                    65:73:8a:1d:5f:f5:2a:b6:e3:5d:fb:23:e8:d5:1e:
                    2d:7f:2e:03:9c:98:be
                ASN1 OID: secp384r1
                NIST CURVE: P-384
        X509v3 extensions:
            X509v3 Basic Constraints: 
                CA:FALSE
            X509v3 Subject Key Identifier: 
                B3:E8:93:05:8B:45:A7:66:03:02:95:9E:9E:4C:46:37:2E:FC:EF:4C
            X509v3 Authority Key Identifier: 
                keyid:0E:F7:61:F1:4E:19:8A:C6:09:15:5B:C7:53:99:8C:7D:0E:82:50:F7
                DirName:/CN=Easy-RSA CA
                serial:6D:69:8C:1C:11:DD:14:62:CB:33:37:19:20:19:B7:C8:A9:7C:E0:6B

            X509v3 Extended Key Usage: 
                TLS Web Client Authentication
            X509v3 Key Usage: 
                Digital Signature
    Signature Algorithm: ecdsa-with-SHA512
         30:65:02:30:1b:1f:f6:4e:91:73:55:6e:51:9c:e5:5d:46:13:
         dc:34:37:8b:83:6e:32:2d:7d:90:07:f9:9e:7a:65:8c:1b:62:
         38:fb:55:3a:79:6f:43:fe:81:7e:c5:34:86:15:3e:cc:02:31:
         00:c1:78:ca:56:b4:9b:58:18:ad:c1:5f:f9:b0:d3:8f:a8:a6:
         fa:98:5d:28:97:e2:e6:bc:03:69:62:cc:de:60:4a:d8:15:59:
         8f:85:4b:46:57:73:82:81:7e:d4:b7:f8:d4
-----BEGIN CERTIFICATE-----
MIICBzCCAY2gAwIBAgIRAKZrmBOz0+z6eM3H4PnaV1AwCgYIKoZIzj0EAwQwFjEU
MBIGA1UEAwwLRWFzeS1SU0EgQ0EwHhcNMjExMDEzMDUxNzA5WhcNMjQwOTI3MDUx
NzA5WjASMRAwDgYDVQQDDAdjbGllbnQ2MHYwEAYHKoZIzj0CAQYFK4EEACIDYgAE
oKnMCIuP1WiXAU9tHheX197tCydZY2YzBzyP6Tb7ZACH00oK/ijfYPx6LV/Ir+tM
B02H8i/6UaZkpsUL/AR6ZEVMdDx2gQtEl2Vlc4odX/UqtuNd+yPo1R4tfy4DnJi+
o4GiMIGfMAkGA1UdEwQCMAAwHQYDVR0OBBYEFLPokwWLRadmAwKVnp5MRjcu/O9M
MFEGA1UdIwRKMEiAFA73YfFOGYrGCRVbx1OZjH0OglD3oRqkGDAWMRQwEgYDVQQD
DAtFYXN5LVJTQSBDQYIUbWmMHBHdFGLLMzcZIBm3yKl84GswEwYDVR0lBAwwCgYI
KwYBBQUHAwIwCwYDVR0PBAQDAgeAMAoGCCqGSM49BAMEA2gAMGUCMBsf9k6Rc1Vu
UZzlXUYT3DQ3i4NuMi19kAf5nnpljBtiOPtVOnlvQ/6BfsU0hhU+zAIxAMF4yla0
m1gYrcFf+bDTj6im+phdKJfi5rwDaWLM3mBK2BVZj4VLRldzgoF+1Lf41A==
-----END CERTIFICATE-----
