Certificate:
    Data:
        Version: 3 (0x2)
        Serial Number:
            ab:89:92:ca:f1:75:89:dd:5b:10:cf:9e:5c:ed:4d:8a
        Signature Algorithm: ecdsa-with-SHA512
        Issuer: CN=Easy-RSA CA
        Validity
            Not Before: Oct 13 04:39:17 2021 GMT
            Not After : Sep 27 04:39:17 2024 GMT
        Subject: CN=client1
        Subject Public Key Info:
            Public Key Algorithm: id-ecPublicKey
                Public-Key: (384 bit)
                pub:
                    04:d7:b2:fd:a6:70:e3:0c:f3:fb:d2:74:90:fb:79:
                    12:6c:34:42:d3:53:54:8d:96:46:ae:e1:70:d7:c0:
                    d7:48:98:c1:ea:93:76:4f:96:eb:69:a1:a1:80:76:
                    6f:50:55:ce:cc:7f:9b:22:98:42:65:7a:1a:c2:68:
                    4f:13:fa:4e:4a:e2:d9:7a:70:ef:64:3b:7e:04:8f:
                    84:a2:32:1d:f8:f5:47:80:4a:4e:75:63:5e:51:7b:
                    59:6a:2c:8e:66:5f:30
                ASN1 OID: secp384r1
                NIST CURVE: P-384
        X509v3 extensions:
            X509v3 Basic Constraints: 
                CA:FALSE
            X509v3 Subject Key Identifier: 
                16:F2:44:4C:37:0A:1F:F7:0A:FB:3A:2C:EA:0E:BE:36:50:B0:1F:D5
            X509v3 Authority Key Identifier: 
                keyid:0E:F7:61:F1:4E:19:8A:C6:09:15:5B:C7:53:99:8C:7D:0E:82:50:F7
                DirName:/CN=Easy-RSA CA
                serial:6D:69:8C:1C:11:DD:14:62:CB:33:37:19:20:19:B7:C8:A9:7C:E0:6B

            X509v3 Extended Key Usage: 
                TLS Web Client Authentication
            X509v3 Key Usage: 
                Digital Signature
    Signature Algorithm: ecdsa-with-SHA512
         30:65:02:31:00:bd:96:42:7a:56:31:8a:dd:3d:25:d5:53:71:
         99:e5:24:dc:ce:43:ee:68:d3:c9:ca:cc:ad:01:1d:38:b6:aa:
         db:b3:aa:6f:8d:2e:f1:8e:47:95:8a:3e:84:09:a8:27:fc:02:
         30:75:8e:26:13:22:3c:5b:83:77:c5:a1:61:87:59:d1:dd:14:
         c6:cb:c8:fa:6b:66:3b:bd:da:12:a4:36:54:f1:91:ce:8c:b9:
         30:64:91:62:37:72:9d:65:4c:2d:bd:74:4b
-----BEGIN CERTIFICATE-----
MIICBzCCAY2gAwIBAgIRAKuJksrxdYndWxDPnlztTYowCgYIKoZIzj0EAwQwFjEU
MBIGA1UEAwwLRWFzeS1SU0EgQ0EwHhcNMjExMDEzMDQzOTE3WhcNMjQwOTI3MDQz
OTE3WjASMRAwDgYDVQQDDAdjbGllbnQxMHYwEAYHKoZIzj0CAQYFK4EEACIDYgAE
17L9pnDjDPP70nSQ+3kSbDRC01NUjZZGruFw18DXSJjB6pN2T5braaGhgHZvUFXO
zH+bIphCZXoawmhPE/pOSuLZenDvZDt+BI+EojId+PVHgEpOdWNeUXtZaiyOZl8w
o4GiMIGfMAkGA1UdEwQCMAAwHQYDVR0OBBYEFBbyREw3Ch/3Cvs6LOoOvjZQsB/V
MFEGA1UdIwRKMEiAFA73YfFOGYrGCRVbx1OZjH0OglD3oRqkGDAWMRQwEgYDVQQD
DAtFYXN5LVJTQSBDQYIUbWmMHBHdFGLLMzcZIBm3yKl84GswEwYDVR0lBAwwCgYI
KwYBBQUHAwIwCwYDVR0PBAQDAgeAMAoGCCqGSM49BAMEA2gAMGUCMQC9lkJ6VjGK
3T0l1VNxmeUk3M5D7mjTycrMrQEdOLaq27Oqb40u8Y5HlYo+hAmoJ/wCMHWOJhMi
PFuDd8WhYYdZ0d0UxsvI+mtmO73aEqQ2VPGRzoy5MGSRYjdynWVMLb10Sw==
-----END CERTIFICATE-----
