Certificate:
    Data:
        Version: 3 (0x2)
        Serial Number:
            2c:43:18:c0:59:b8:d4:25:f2:29:c8:6d:65:5f:f1:be
        Signature Algorithm: ecdsa-with-SHA512
        Issuer: CN=Easy-RSA CA
        Validity
            Not Before: Oct 13 05:17:03 2021 GMT
            Not After : Sep 27 05:17:03 2024 GMT
        Subject: CN=client5
        Subject Public Key Info:
            Public Key Algorithm: id-ecPublicKey
                Public-Key: (384 bit)
                pub:
                    04:0f:72:74:23:fb:3c:8a:33:f7:73:be:60:a9:cb:
                    ca:3a:e7:17:e6:57:80:f0:5e:71:8e:f2:b6:fe:b2:
                    09:a6:46:e9:1f:ee:eb:25:9f:59:26:fa:49:c9:45:
                    c4:c9:52:5d:8f:f3:34:c9:7c:e8:6e:f6:dc:01:13:
                    c1:b2:52:f2:d5:70:82:37:c9:ee:41:75:4d:f0:66:
                    40:fd:de:fa:f1:92:92:ac:bf:0c:15:63:88:e7:6d:
                    80:e4:15:74:14:16:bd
                ASN1 OID: secp384r1
                NIST CURVE: P-384
        X509v3 extensions:
            X509v3 Basic Constraints: 
                CA:FALSE
            X509v3 Subject Key Identifier: 
                49:05:F7:7F:51:C9:C6:4A:F7:60:70:11:C7:0A:98:D3:9C:6D:1D:AD
            X509v3 Authority Key Identifier: 
                keyid:0E:F7:61:F1:4E:19:8A:C6:09:15:5B:C7:53:99:8C:7D:0E:82:50:F7
                DirName:/CN=Easy-RSA CA
                serial:6D:69:8C:1C:11:DD:14:62:CB:33:37:19:20:19:B7:C8:A9:7C:E0:6B

            X509v3 Extended Key Usage: 
                TLS Web Client Authentication
            X509v3 Key Usage: 
                Digital Signature
    Signature Algorithm: ecdsa-with-SHA512
         30:64:02:30:72:d3:ce:70:05:b3:8b:e7:7b:64:c4:a9:41:c7:
         db:03:82:f1:ff:b0:26:db:30:fa:9c:21:4c:a3:96:b6:ea:51:
         a0:05:05:ae:ef:04:df:4a:d8:61:5f:d2:41:0f:ee:0e:02:30:
         79:50:c1:2c:f6:ad:15:7f:e1:3a:f0:3c:28:d3:93:6a:b7:06:
         e5:a0:d1:28:c8:5b:fd:e8:be:89:cc:0e:0b:94:62:7d:41:72:
         2e:d5:55:87:bf:9b:b4:25:4f:4f:ca:c3
-----BEGIN CERTIFICATE-----
MIICBTCCAYygAwIBAgIQLEMYwFm41CXyKchtZV/xvjAKBggqhkjOPQQDBDAWMRQw
EgYDVQQDDAtFYXN5LVJTQSBDQTAeFw0yMTEwMTMwNTE3MDNaFw0yNDA5MjcwNTE3
MDNaMBIxEDAOBgNVBAMMB2NsaWVudDUwdjAQBgcqhkjOPQIBBgUrgQQAIgNiAAQP
cnQj+zyKM/dzvmCpy8o65xfmV4DwXnGO8rb+sgmmRukf7usln1km+knJRcTJUl2P
8zTJfOhu9twBE8GyUvLVcII3ye5BdU3wZkD93vrxkpKsvwwVY4jnbYDkFXQUFr2j
gaIwgZ8wCQYDVR0TBAIwADAdBgNVHQ4EFgQUSQX3f1HJxkr3YHARxwqY05xtHa0w
UQYDVR0jBEowSIAUDvdh8U4ZisYJFVvHU5mMfQ6CUPehGqQYMBYxFDASBgNVBAMM
C0Vhc3ktUlNBIENBghRtaYwcEd0UYsszNxkgGbfIqXzgazATBgNVHSUEDDAKBggr
BgEFBQcDAjALBgNVHQ8EBAMCB4AwCgYIKoZIzj0EAwQDZwAwZAIwctPOcAWzi+d7
ZMSpQcfbA4Lx/7Am2zD6nCFMo5a26lGgBQWu7wTfSthhX9JBD+4OAjB5UMEs9q0V
f+E68Dwo05NqtwbloNEoyFv96L6JzA4LlGJ9QXIu1VWHv5u0JU9PysM=
-----END CERTIFICATE-----
